SF:F:\Projects\Rust\skillcapped-generator\src\app.rs
FN:46,_RNvMs_NtCsaEqTgPazcIc_21skillcapped_generator3appNtB4_3App11remove_char
FN:29,_RNvMs_NtCsaEqTgPazcIc_21skillcapped_generator3appNtB4_3App11reset_input
FN:77,_RNvMs_NtCsaEqTgPazcIc_21skillcapped_generator3appNtB4_3App13generate_code
FN:89,_RNvMs_NtCsaEqTgPazcIc_21skillcapped_generator3appNtB4_3App13validate_code
FN:135,_RNvMs_NtCsaEqTgPazcIc_21skillcapped_generator3appNtB4_3App14get_wa_configs
FN:50,_RNvMs_NtCsaEqTgPazcIc_21skillcapped_generator3appNtB4_3App14sanitize_input
FN:33,_RNvMs_NtCsaEqTgPazcIc_21skillcapped_generator3appNtB4_3App14toggle_version
FN:116,_RNvMs_NtCsaEqTgPazcIc_21skillcapped_generator3appNtB4_3App16get_addon_config
FN:123,_RNvMs_NtCsaEqTgPazcIc_21skillcapped_generator3appNtB4_3App20decode_import_string
FN:55,_RNvMs_NtCsaEqTgPazcIc_21skillcapped_generator3appNtB4_3App21is_valid_battlenet_id
FN:19,_RNvMs_NtCsaEqTgPazcIc_21skillcapped_generator3appNtB4_3App3new
FN:41,_RNvMs_NtCsaEqTgPazcIc_21skillcapped_generator3appNtB4_3App8add_char
FN:13,_RNvXNtCsaEqTgPazcIc_21skillcapped_generator3appNtB2_3AppNtNtCseoI69Q14PwV_4core7default7Default7default
FN:138,_RNCNvMs_NtCsaEqTgPazcIc_21skillcapped_generator3appNtB6_3App14get_wa_configs0B8_
FN:148,_RNCNvMs_NtCsaEqTgPazcIc_21skillcapped_generator3appNtB6_3App14get_wa_configss0_0B8_
FN:152,_RNCNvMs_NtCsaEqTgPazcIc_21skillcapped_generator3appNtB6_3App14get_wa_configss1_0B8_
FN:142,_RNCNvMs_NtCsaEqTgPazcIc_21skillcapped_generator3appNtB6_3App14get_wa_configss_0B8_
FN:52,_RNCNvMs_NtCsaEqTgPazcIc_21skillcapped_generator3appNtB6_3App14sanitize_input0B8_
FN:126,_RNCNvMs_NtCsaEqTgPazcIc_21skillcapped_generator3appNtB6_3App20decode_import_string0B8_
FN:130,_RNCNvMs_NtCsaEqTgPazcIc_21skillcapped_generator3appNtB6_3App20decode_import_strings_0B8_
FN:69,_RNCNvMs_NtCsaEqTgPazcIc_21skillcapped_generator3appNtB6_3App21is_valid_battlenet_id0B8_
FN:74,_RNCNvMs_NtCsaEqTgPazcIc_21skillcapped_generator3appNtB6_3App21is_valid_battlenet_ids_0B8_
FN:138,_RNCNvMs_NtCsgoF65WXF5Sm_21skillcapped_generator3appNtB6_3App14get_wa_configs0B8_
FN:148,_RNCNvMs_NtCsgoF65WXF5Sm_21skillcapped_generator3appNtB6_3App14get_wa_configss0_0B8_
FN:152,_RNCNvMs_NtCsgoF65WXF5Sm_21skillcapped_generator3appNtB6_3App14get_wa_configss1_0B8_
FN:142,_RNCNvMs_NtCsgoF65WXF5Sm_21skillcapped_generator3appNtB6_3App14get_wa_configss_0B8_
FN:52,_RNCNvMs_NtCsgoF65WXF5Sm_21skillcapped_generator3appNtB6_3App14sanitize_input0B8_
FN:126,_RNCNvMs_NtCsgoF65WXF5Sm_21skillcapped_generator3appNtB6_3App20decode_import_string0B8_
FN:130,_RNCNvMs_NtCsgoF65WXF5Sm_21skillcapped_generator3appNtB6_3App20decode_import_strings_0B8_
FN:69,_RNCNvMs_NtCsgoF65WXF5Sm_21skillcapped_generator3appNtB6_3App21is_valid_battlenet_id0B8_
FN:74,_RNCNvMs_NtCsgoF65WXF5Sm_21skillcapped_generator3appNtB6_3App21is_valid_battlenet_ids_0B8_
FN:46,_RNvMs_NtCsgoF65WXF5Sm_21skillcapped_generator3appNtB4_3App11remove_char
FN:29,_RNvMs_NtCsgoF65WXF5Sm_21skillcapped_generator3appNtB4_3App11reset_input
FN:77,_RNvMs_NtCsgoF65WXF5Sm_21skillcapped_generator3appNtB4_3App13generate_code
FN:89,_RNvMs_NtCsgoF65WXF5Sm_21skillcapped_generator3appNtB4_3App13validate_code
FN:135,_RNvMs_NtCsgoF65WXF5Sm_21skillcapped_generator3appNtB4_3App14get_wa_configs
FN:50,_RNvMs_NtCsgoF65WXF5Sm_21skillcapped_generator3appNtB4_3App14sanitize_input
FN:33,_RNvMs_NtCsgoF65WXF5Sm_21skillcapped_generator3appNtB4_3App14toggle_version
FN:116,_RNvMs_NtCsgoF65WXF5Sm_21skillcapped_generator3appNtB4_3App16get_addon_config
FN:123,_RNvMs_NtCsgoF65WXF5Sm_21skillcapped_generator3appNtB4_3App20decode_import_string
FN:55,_RNvMs_NtCsgoF65WXF5Sm_21skillcapped_generator3appNtB4_3App21is_valid_battlenet_id
FN:19,_RNvMs_NtCsgoF65WXF5Sm_21skillcapped_generator3appNtB4_3App3new
FN:41,_RNvMs_NtCsgoF65WXF5Sm_21skillcapped_generator3appNtB4_3App8add_char
FN:13,_RNvXNtCsgoF65WXF5Sm_21skillcapped_generator3appNtB2_3AppNtNtCseoI69Q14PwV_4core7default7Default7default
FN:138,_RNCNvMs_NtCsnNe3crDoqn_21skillcapped_generator3appNtB6_3App14get_wa_configs0B8_
FN:148,_RNCNvMs_NtCsnNe3crDoqn_21skillcapped_generator3appNtB6_3App14get_wa_configss0_0B8_
FN:152,_RNCNvMs_NtCsnNe3crDoqn_21skillcapped_generator3appNtB6_3App14get_wa_configss1_0B8_
FN:142,_RNCNvMs_NtCsnNe3crDoqn_21skillcapped_generator3appNtB6_3App14get_wa_configss_0B8_
FN:52,_RNCNvMs_NtCsnNe3crDoqn_21skillcapped_generator3appNtB6_3App14sanitize_input0B8_
FN:126,_RNCNvMs_NtCsnNe3crDoqn_21skillcapped_generator3appNtB6_3App20decode_import_string0B8_
FN:130,_RNCNvMs_NtCsnNe3crDoqn_21skillcapped_generator3appNtB6_3App20decode_import_strings_0B8_
FN:69,_RNCNvMs_NtCsnNe3crDoqn_21skillcapped_generator3appNtB6_3App21is_valid_battlenet_id0B8_
FN:74,_RNCNvMs_NtCsnNe3crDoqn_21skillcapped_generator3appNtB6_3App21is_valid_battlenet_ids_0B8_
FN:46,_RNvMs_NtCsnNe3crDoqn_21skillcapped_generator3appNtB4_3App11remove_char
FN:29,_RNvMs_NtCsnNe3crDoqn_21skillcapped_generator3appNtB4_3App11reset_input
FN:77,_RNvMs_NtCsnNe3crDoqn_21skillcapped_generator3appNtB4_3App13generate_code
FN:89,_RNvMs_NtCsnNe3crDoqn_21skillcapped_generator3appNtB4_3App13validate_code
FN:135,_RNvMs_NtCsnNe3crDoqn_21skillcapped_generator3appNtB4_3App14get_wa_configs
FN:50,_RNvMs_NtCsnNe3crDoqn_21skillcapped_generator3appNtB4_3App14sanitize_input
FN:33,_RNvMs_NtCsnNe3crDoqn_21skillcapped_generator3appNtB4_3App14toggle_version
FN:116,_RNvMs_NtCsnNe3crDoqn_21skillcapped_generator3appNtB4_3App16get_addon_config
FN:123,_RNvMs_NtCsnNe3crDoqn_21skillcapped_generator3appNtB4_3App20decode_import_string
FN:55,_RNvMs_NtCsnNe3crDoqn_21skillcapped_generator3appNtB4_3App21is_valid_battlenet_id
FN:19,_RNvMs_NtCsnNe3crDoqn_21skillcapped_generator3appNtB4_3App3new
FN:41,_RNvMs_NtCsnNe3crDoqn_21skillcapped_generator3appNtB4_3App8add_char
FN:13,_RNvXNtCsnNe3crDoqn_21skillcapped_generator3appNtB2_3AppNtNtCseoI69Q14PwV_4core7default7Default7default
FN:138,_RNCNvMs_NtCscC6JkBlrp9X_21skillcapped_generator3appNtB6_3App14get_wa_configs0B8_
FN:148,_RNCNvMs_NtCscC6JkBlrp9X_21skillcapped_generator3appNtB6_3App14get_wa_configss0_0B8_
FN:152,_RNCNvMs_NtCscC6JkBlrp9X_21skillcapped_generator3appNtB6_3App14get_wa_configss1_0B8_
FN:142,_RNCNvMs_NtCscC6JkBlrp9X_21skillcapped_generator3appNtB6_3App14get_wa_configss_0B8_
FN:126,_RNCNvMs_NtCscC6JkBlrp9X_21skillcapped_generator3appNtB6_3App20decode_import_string0B8_
FN:130,_RNCNvMs_NtCscC6JkBlrp9X_21skillcapped_generator3appNtB6_3App20decode_import_strings_0B8_
FN:89,_RNvMs_NtCscC6JkBlrp9X_21skillcapped_generator3appNtB4_3App13validate_code
FN:135,_RNvMs_NtCscC6JkBlrp9X_21skillcapped_generator3appNtB4_3App14get_wa_configs
FN:123,_RNvMs_NtCscC6JkBlrp9X_21skillcapped_generator3appNtB4_3App20decode_import_string
FN:13,_RNvXNtCscC6JkBlrp9X_21skillcapped_generator3appNtB2_3AppNtNtCseoI69Q14PwV_4core7default7Default7default
FN:52,_RNCNvMs_NtCscC6JkBlrp9X_21skillcapped_generator3appNtB6_3App14sanitize_input0B8_
FN:69,_RNCNvMs_NtCscC6JkBlrp9X_21skillcapped_generator3appNtB6_3App21is_valid_battlenet_id0B8_
FN:74,_RNCNvMs_NtCscC6JkBlrp9X_21skillcapped_generator3appNtB6_3App21is_valid_battlenet_ids_0B8_
FN:46,_RNvMs_NtCscC6JkBlrp9X_21skillcapped_generator3appNtB4_3App11remove_char
FN:29,_RNvMs_NtCscC6JkBlrp9X_21skillcapped_generator3appNtB4_3App11reset_input
FN:77,_RNvMs_NtCscC6JkBlrp9X_21skillcapped_generator3appNtB4_3App13generate_code
FN:50,_RNvMs_NtCscC6JkBlrp9X_21skillcapped_generator3appNtB4_3App14sanitize_input
FN:33,_RNvMs_NtCscC6JkBlrp9X_21skillcapped_generator3appNtB4_3App14toggle_version
FN:116,_RNvMs_NtCscC6JkBlrp9X_21skillcapped_generator3appNtB4_3App16get_addon_config
FN:55,_RNvMs_NtCscC6JkBlrp9X_21skillcapped_generator3appNtB4_3App21is_valid_battlenet_id
FN:19,_RNvMs_NtCscC6JkBlrp9X_21skillcapped_generator3appNtB4_3App3new
FN:41,_RNvMs_NtCscC6JkBlrp9X_21skillcapped_generator3appNtB4_3App8add_char
FNDA:29,_RNvMs_NtCsaEqTgPazcIc_21skillcapped_generator3appNtB4_3App11remove_char
FNDA:48,_RNvMs_NtCsaEqTgPazcIc_21skillcapped_generator3appNtB4_3App11reset_input
FNDA:48,_RNvMs_NtCsaEqTgPazcIc_21skillcapped_generator3appNtB4_3App13generate_code
FNDA:12,_RNvMs_NtCsaEqTgPazcIc_21skillcapped_generator3appNtB4_3App13validate_code
FNDA:3,_RNvMs_NtCsaEqTgPazcIc_21skillcapped_generator3appNtB4_3App14get_wa_configs
FNDA:19,_RNvMs_NtCsaEqTgPazcIc_21skillcapped_generator3appNtB4_3App14sanitize_input
FNDA:18,_RNvMs_NtCsaEqTgPazcIc_21skillcapped_generator3appNtB4_3App14toggle_version
FNDA:48,_RNvMs_NtCsaEqTgPazcIc_21skillcapped_generator3appNtB4_3App16get_addon_config
FNDA:12,_RNvMs_NtCsaEqTgPazcIc_21skillcapped_generator3appNtB4_3App20decode_import_string
FNDA:118,_RNvMs_NtCsaEqTgPazcIc_21skillcapped_generator3appNtB4_3App21is_valid_battlenet_id
FNDA:184,_RNvMs_NtCsaEqTgPazcIc_21skillcapped_generator3appNtB4_3App3new
FNDA:479,_RNvMs_NtCsaEqTgPazcIc_21skillcapped_generator3appNtB4_3App8add_char
FNDA:0,_RNvXNtCsaEqTgPazcIc_21skillcapped_generator3appNtB2_3AppNtNtCseoI69Q14PwV_4core7default7Default7default
FNDA:18,_RNCNvMs_NtCsaEqTgPazcIc_21skillcapped_generator3appNtB6_3App14get_wa_configs0B8_
FNDA:18,_RNCNvMs_NtCsaEqTgPazcIc_21skillcapped_generator3appNtB6_3App14get_wa_configss0_0B8_
FNDA:24,_RNCNvMs_NtCsaEqTgPazcIc_21skillcapped_generator3appNtB6_3App14get_wa_configss1_0B8_
FNDA:24,_RNCNvMs_NtCsaEqTgPazcIc_21skillcapped_generator3appNtB6_3App14get_wa_configss_0B8_
FNDA:441,_RNCNvMs_NtCsaEqTgPazcIc_21skillcapped_generator3appNtB6_3App14sanitize_input0B8_
FNDA:327,_RNCNvMs_NtCsaEqTgPazcIc_21skillcapped_generator3appNtB6_3App20decode_import_string0B8_
FNDA:0,_RNCNvMs_NtCsaEqTgPazcIc_21skillcapped_generator3appNtB6_3App20decode_import_strings_0B8_
FNDA:513,_RNCNvMs_NtCsaEqTgPazcIc_21skillcapped_generator3appNtB6_3App21is_valid_battlenet_id0B8_
FNDA:219,_RNCNvMs_NtCsaEqTgPazcIc_21skillcapped_generator3appNtB6_3App21is_valid_battlenet_ids_0B8_
FNDA:0,_RNCNvMs_NtCsgoF65WXF5Sm_21skillcapped_generator3appNtB6_3App14get_wa_configs0B8_
FNDA:0,_RNCNvMs_NtCsgoF65WXF5Sm_21skillcapped_generator3appNtB6_3App14get_wa_configss0_0B8_
FNDA:0,_RNCNvMs_NtCsgoF65WXF5Sm_21skillcapped_generator3appNtB6_3App14get_wa_configss1_0B8_
FNDA:0,_RNCNvMs_NtCsgoF65WXF5Sm_21skillcapped_generator3appNtB6_3App14get_wa_configss_0B8_
FNDA:0,_RNCNvMs_NtCsgoF65WXF5Sm_21skillcapped_generator3appNtB6_3App14sanitize_input0B8_
FNDA:0,_RNCNvMs_NtCsgoF65WXF5Sm_21skillcapped_generator3appNtB6_3App20decode_import_string0B8_
FNDA:0,_RNCNvMs_NtCsgoF65WXF5Sm_21skillcapped_generator3appNtB6_3App20decode_import_strings_0B8_
FNDA:0,_RNCNvMs_NtCsgoF65WXF5Sm_21skillcapped_generator3appNtB6_3App21is_valid_battlenet_id0B8_
FNDA:0,_RNCNvMs_NtCsgoF65WXF5Sm_21skillcapped_generator3appNtB6_3App21is_valid_battlenet_ids_0B8_
FNDA:0,_RNvMs_NtCsgoF65WXF5Sm_21skillcapped_generator3appNtB4_3App11remove_char
FNDA:0,_RNvMs_NtCsgoF65WXF5Sm_21skillcapped_generator3appNtB4_3App11reset_input
FNDA:0,_RNvMs_NtCsgoF65WXF5Sm_21skillcapped_generator3appNtB4_3App13generate_code
FNDA:0,_RNvMs_NtCsgoF65WXF5Sm_21skillcapped_generator3appNtB4_3App13validate_code
FNDA:0,_RNvMs_NtCsgoF65WXF5Sm_21skillcapped_generator3appNtB4_3App14get_wa_configs
FNDA:0,_RNvMs_NtCsgoF65WXF5Sm_21skillcapped_generator3appNtB4_3App14sanitize_input
FNDA:0,_RNvMs_NtCsgoF65WXF5Sm_21skillcapped_generator3appNtB4_3App14toggle_version
FNDA:0,_RNvMs_NtCsgoF65WXF5Sm_21skillcapped_generator3appNtB4_3App16get_addon_config
FNDA:0,_RNvMs_NtCsgoF65WXF5Sm_21skillcapped_generator3appNtB4_3App20decode_import_string
FNDA:0,_RNvMs_NtCsgoF65WXF5Sm_21skillcapped_generator3appNtB4_3App21is_valid_battlenet_id
FNDA:0,_RNvMs_NtCsgoF65WXF5Sm_21skillcapped_generator3appNtB4_3App3new
FNDA:0,_RNvMs_NtCsgoF65WXF5Sm_21skillcapped_generator3appNtB4_3App8add_char
FNDA:0,_RNvXNtCsgoF65WXF5Sm_21skillcapped_generator3appNtB2_3AppNtNtCseoI69Q14PwV_4core7default7Default7default
FNDA:0,_RNCNvMs_NtCsnNe3crDoqn_21skillcapped_generator3appNtB6_3App14get_wa_configs0B8_
FNDA:0,_RNCNvMs_NtCsnNe3crDoqn_21skillcapped_generator3appNtB6_3App14get_wa_configss0_0B8_
FNDA:0,_RNCNvMs_NtCsnNe3crDoqn_21skillcapped_generator3appNtB6_3App14get_wa_configss1_0B8_
FNDA:0,_RNCNvMs_NtCsnNe3crDoqn_21skillcapped_generator3appNtB6_3App14get_wa_configss_0B8_
FNDA:0,_RNCNvMs_NtCsnNe3crDoqn_21skillcapped_generator3appNtB6_3App14sanitize_input0B8_
FNDA:0,_RNCNvMs_NtCsnNe3crDoqn_21skillcapped_generator3appNtB6_3App20decode_import_string0B8_
FNDA:0,_RNCNvMs_NtCsnNe3crDoqn_21skillcapped_generator3appNtB6_3App20decode_import_strings_0B8_
FNDA:0,_RNCNvMs_NtCsnNe3crDoqn_21skillcapped_generator3appNtB6_3App21is_valid_battlenet_id0B8_
FNDA:0,_RNCNvMs_NtCsnNe3crDoqn_21skillcapped_generator3appNtB6_3App21is_valid_battlenet_ids_0B8_
FNDA:0,_RNvMs_NtCsnNe3crDoqn_21skillcapped_generator3appNtB4_3App11remove_char
FNDA:0,_RNvMs_NtCsnNe3crDoqn_21skillcapped_generator3appNtB4_3App11reset_input
FNDA:0,_RNvMs_NtCsnNe3crDoqn_21skillcapped_generator3appNtB4_3App13generate_code
FNDA:0,_RNvMs_NtCsnNe3crDoqn_21skillcapped_generator3appNtB4_3App13validate_code
FNDA:0,_RNvMs_NtCsnNe3crDoqn_21skillcapped_generator3appNtB4_3App14get_wa_configs
FNDA:0,_RNvMs_NtCsnNe3crDoqn_21skillcapped_generator3appNtB4_3App14sanitize_input
FNDA:0,_RNvMs_NtCsnNe3crDoqn_21skillcapped_generator3appNtB4_3App14toggle_version
FNDA:0,_RNvMs_NtCsnNe3crDoqn_21skillcapped_generator3appNtB4_3App16get_addon_config
FNDA:0,_RNvMs_NtCsnNe3crDoqn_21skillcapped_generator3appNtB4_3App20decode_import_string
FNDA:0,_RNvMs_NtCsnNe3crDoqn_21skillcapped_generator3appNtB4_3App21is_valid_battlenet_id
FNDA:0,_RNvMs_NtCsnNe3crDoqn_21skillcapped_generator3appNtB4_3App3new
FNDA:0,_RNvMs_NtCsnNe3crDoqn_21skillcapped_generator3appNtB4_3App8add_char
FNDA:0,_RNvXNtCsnNe3crDoqn_21skillcapped_generator3appNtB2_3AppNtNtCseoI69Q14PwV_4core7default7Default7default
FNDA:0,_RNCNvMs_NtCscC6JkBlrp9X_21skillcapped_generator3appNtB6_3App14get_wa_configs0B8_
FNDA:0,_RNCNvMs_NtCscC6JkBlrp9X_21skillcapped_generator3appNtB6_3App14get_wa_configss0_0B8_
FNDA:0,_RNCNvMs_NtCscC6JkBlrp9X_21skillcapped_generator3appNtB6_3App14get_wa_configss1_0B8_
FNDA:0,_RNCNvMs_NtCscC6JkBlrp9X_21skillcapped_generator3appNtB6_3App14get_wa_configss_0B8_
FNDA:0,_RNCNvMs_NtCscC6JkBlrp9X_21skillcapped_generator3appNtB6_3App20decode_import_string0B8_
FNDA:0,_RNCNvMs_NtCscC6JkBlrp9X_21skillcapped_generator3appNtB6_3App20decode_import_strings_0B8_
FNDA:0,_RNvMs_NtCscC6JkBlrp9X_21skillcapped_generator3appNtB4_3App13validate_code
FNDA:0,_RNvMs_NtCscC6JkBlrp9X_21skillcapped_generator3appNtB4_3App14get_wa_configs
FNDA:0,_RNvMs_NtCscC6JkBlrp9X_21skillcapped_generator3appNtB4_3App20decode_import_string
FNDA:0,_RNvXNtCscC6JkBlrp9X_21skillcapped_generator3appNtB2_3AppNtNtCseoI69Q14PwV_4core7default7Default7default
FNDA:0,_RNCNvMs_NtCscC6JkBlrp9X_21skillcapped_generator3appNtB6_3App14sanitize_input0B8_
FNDA:0,_RNCNvMs_NtCscC6JkBlrp9X_21skillcapped_generator3appNtB6_3App21is_valid_battlenet_id0B8_
FNDA:0,_RNCNvMs_NtCscC6JkBlrp9X_21skillcapped_generator3appNtB6_3App21is_valid_battlenet_ids_0B8_
FNDA:0,_RNvMs_NtCscC6JkBlrp9X_21skillcapped_generator3appNtB4_3App11remove_char
FNDA:0,_RNvMs_NtCscC6JkBlrp9X_21skillcapped_generator3appNtB4_3App11reset_input
FNDA:0,_RNvMs_NtCscC6JkBlrp9X_21skillcapped_generator3appNtB4_3App13generate_code
FNDA:0,_RNvMs_NtCscC6JkBlrp9X_21skillcapped_generator3appNtB4_3App14sanitize_input
FNDA:0,_RNvMs_NtCscC6JkBlrp9X_21skillcapped_generator3appNtB4_3App14toggle_version
FNDA:0,_RNvMs_NtCscC6JkBlrp9X_21skillcapped_generator3appNtB4_3App16get_addon_config
FNDA:0,_RNvMs_NtCscC6JkBlrp9X_21skillcapped_generator3appNtB4_3App21is_valid_battlenet_id
FNDA:0,_RNvMs_NtCscC6JkBlrp9X_21skillcapped_generator3appNtB4_3App3new
FNDA:0,_RNvMs_NtCscC6JkBlrp9X_21skillcapped_generator3appNtB4_3App8add_char
FNF:22
FNH:20
DA:13,0
DA:14,0
DA:15,0
DA:19,184
DA:20,184
DA:21,184
DA:22,184
DA:23,184
DA:24,184
DA:25,184
DA:26,184
DA:27,184
DA:29,48
DA:30,48
DA:31,48
DA:33,18
DA:34,18
DA:35,18
DA:36,12
DA:37,0
DA:39,18
DA:41,479
DA:42,479
DA:43,479
DA:44,479
DA:46,29
DA:47,29
DA:48,29
DA:50,19
DA:51,19
DA:52,441
DA:53,19
DA:55,118
DA:56,118
DA:57,25
DA:58,93
DA:60,93
DA:61,93
DA:62,24
DA:63,69
DA:65,69
DA:66,69
DA:69,513
DA:70,6
DA:71,63
DA:74,219
DA:75,118
DA:77,48
DA:78,48
DA:80,48
DA:81,48
DA:82,6
DA:83,42
DA:84,48
DA:86,48
DA:87,48
DA:89,12
DA:90,12
DA:91,9
DA:92,9
DA:93,9
DA:95,9
DA:96,9
DA:98,9
DA:99,9
DA:100,9
DA:101,9
DA:102,9
DA:105,33
DA:106,30
DA:107,6
DA:108,24
DA:110,3
DA:112,3
DA:114,12
DA:116,48
DA:117,48
DA:118,48
DA:119,0
DA:121,48
DA:123,12
DA:124,12
DA:125,12
DA:126,327
DA:127,12
DA:129,12
DA:130,9
DA:131,3
DA:133,12
DA:135,3
DA:136,3
DA:137,3
DA:138,18
DA:139,3
DA:140,3
DA:141,3
DA:142,24
DA:143,3
DA:144,3
DA:146,3
DA:147,3
DA:148,18
DA:149,3
DA:150,3
DA:151,3
DA:152,24
DA:153,3
DA:154,3
DA:156,3
DA:157,3
BRF:0
BRH:0
LF:119
LH:113
end_of_record
SF:F:\Projects\Rust\skillcapped-generator\src\input.rs
FN:40,_RNvNtCsaEqTgPazcIc_21skillcapped_generator5input13has_modifiers
FN:46,_RNvNtCsaEqTgPazcIc_21skillcapped_generator5input16handle_copy_code
FN:6,_RNvNtCsaEqTgPazcIc_21skillcapped_generator5input16handle_key_event
FN:85,_RNvNtCsaEqTgPazcIc_21skillcapped_generator5input16open_github_link
FN:64,_RNvNtCsaEqTgPazcIc_21skillcapped_generator5input25handle_paste_battlenet_id
FN:40,_RNvNtCsgoF65WXF5Sm_21skillcapped_generator5input13has_modifiers
FN:46,_RNvNtCsgoF65WXF5Sm_21skillcapped_generator5input16handle_copy_code
FN:6,_RNvNtCsgoF65WXF5Sm_21skillcapped_generator5input16handle_key_event
FN:85,_RNvNtCsgoF65WXF5Sm_21skillcapped_generator5input16open_github_link
FN:64,_RNvNtCsgoF65WXF5Sm_21skillcapped_generator5input25handle_paste_battlenet_id
FN:40,_RNvNtCsnNe3crDoqn_21skillcapped_generator5input13has_modifiers
FN:46,_RNvNtCsnNe3crDoqn_21skillcapped_generator5input16handle_copy_code
FN:6,_RNvNtCsnNe3crDoqn_21skillcapped_generator5input16handle_key_event
FN:85,_RNvNtCsnNe3crDoqn_21skillcapped_generator5input16open_github_link
FN:64,_RNvNtCsnNe3crDoqn_21skillcapped_generator5input25handle_paste_battlenet_id
FN:40,_RNvNtCscC6JkBlrp9X_21skillcapped_generator5input13has_modifiers
FN:46,_RNvNtCscC6JkBlrp9X_21skillcapped_generator5input16handle_copy_code
FN:6,_RNvNtCscC6JkBlrp9X_21skillcapped_generator5input16handle_key_event
FN:85,_RNvNtCscC6JkBlrp9X_21skillcapped_generator5input16open_github_link
FN:64,_RNvNtCscC6JkBlrp9X_21skillcapped_generator5input25handle_paste_battlenet_id
FNDA:227,_RNvNtCsaEqTgPazcIc_21skillcapped_generator5input13has_modifiers
FNDA:15,_RNvNtCsaEqTgPazcIc_21skillcapped_generator5input16handle_copy_code
FNDA:321,_RNvNtCsaEqTgPazcIc_21skillcapped_generator5input16handle_key_event
FNDA:3,_RNvNtCsaEqTgPazcIc_21skillcapped_generator5input16open_github_link
FNDA:8,_RNvNtCsaEqTgPazcIc_21skillcapped_generator5input25handle_paste_battlenet_id
FNDA:0,_RNvNtCsgoF65WXF5Sm_21skillcapped_generator5input13has_modifiers
FNDA:0,_RNvNtCsgoF65WXF5Sm_21skillcapped_generator5input16handle_copy_code
FNDA:0,_RNvNtCsgoF65WXF5Sm_21skillcapped_generator5input16handle_key_event
FNDA:0,_RNvNtCsgoF65WXF5Sm_21skillcapped_generator5input16open_github_link
FNDA:0,_RNvNtCsgoF65WXF5Sm_21skillcapped_generator5input25handle_paste_battlenet_id
FNDA:0,_RNvNtCsnNe3crDoqn_21skillcapped_generator5input13has_modifiers
FNDA:0,_RNvNtCsnNe3crDoqn_21skillcapped_generator5input16handle_copy_code
FNDA:0,_RNvNtCsnNe3crDoqn_21skillcapped_generator5input16handle_key_event
FNDA:0,_RNvNtCsnNe3crDoqn_21skillcapped_generator5input16open_github_link
FNDA:0,_RNvNtCsnNe3crDoqn_21skillcapped_generator5input25handle_paste_battlenet_id
FNDA:0,_RNvNtCscC6JkBlrp9X_21skillcapped_generator5input13has_modifiers
FNDA:0,_RNvNtCscC6JkBlrp9X_21skillcapped_generator5input16handle_copy_code
FNDA:0,_RNvNtCscC6JkBlrp9X_21skillcapped_generator5input16handle_key_event
FNDA:0,_RNvNtCscC6JkBlrp9X_21skillcapped_generator5input16open_github_link
FNDA:0,_RNvNtCscC6JkBlrp9X_21skillcapped_generator5input25handle_paste_battlenet_id
FNF:5
FNH:5
DA:6,321
DA:7,18
DA:8,227
DA:9,179
DA:10,179
DA:11,23
DA:12,23
DA:13,23
DA:14,12
DA:15,12
DA:16,12
DA:17,15
DA:18,15
DA:19,15
DA:20,8
DA:21,8
DA:22,8
DA:23,18
DA:24,15
DA:25,15
DA:26,8
DA:27,8
DA:28,8
DA:29,3
DA:30,3
DA:31,3
DA:32,7
DA:33,7
DA:35,51
DA:37,314
DA:38,321
DA:40,227
DA:41,227
DA:42,188
DA:43,182
DA:44,227
DA:46,15
DA:47,15
DA:48,9
DA:49,6
DA:51,6
DA:52,0
DA:55,6
DA:56,0
DA:59,6
DA:60,6
DA:61,6
DA:62,15
DA:64,8
DA:65,8
DA:66,0
DA:69,8
DA:70,0
DA:74,8
DA:77,288
DA:78,288
DA:79,288
DA:82,8
DA:83,8
DA:85,3
DA:86,3
DA:89,3
DA:90,3
DA:91,3
DA:92,3
DA:93,3
DA:104,3
BRF:0
BRH:0
LF:67
LH:63
end_of_record
SF:F:\Projects\Rust\skillcapped-generator\src\main.rs
FN:8,_RNvCsgoF65WXF5Sm_21skillcapped_generator4main
FN:8,_RNvCscC6JkBlrp9X_21skillcapped_generator4main
FNDA:0,_RNvCsgoF65WXF5Sm_21skillcapped_generator4main
FNDA:0,_RNvCscC6JkBlrp9X_21skillcapped_generator4main
FNF:1
FNH:0
DA:8,0
DA:9,0
DA:10,0
DA:11,0
DA:13,0
DA:14,0
DA:15,0
DA:17,0
DA:18,0
BRF:0
BRH:0
LF:9
LH:0
end_of_record
SF:F:\Projects\Rust\skillcapped-generator\src\terminal.rs
FN:17,_RINvNtCsgoF65WXF5Sm_21skillcapped_generator8terminal7run_apppEB4_
FN:26,_RNCINvNtCsgoF65WXF5Sm_21skillcapped_generator8terminal7run_apppE0B6_
FN:53,_RNvNtCsgoF65WXF5Sm_21skillcapped_generator8terminal14setup_terminal
FN:62,_RNvNtCsgoF65WXF5Sm_21skillcapped_generator8terminal16restore_terminal
FN:71,_RNvNtCsgoF65WXF5Sm_21skillcapped_generator8terminal20update_copy_feedback
FN:17,_RINvNtCsnNe3crDoqn_21skillcapped_generator8terminal7run_apppEB4_
FN:26,_RNCINvNtCsnNe3crDoqn_21skillcapped_generator8terminal7run_apppE0B6_
FN:53,_RNvNtCsnNe3crDoqn_21skillcapped_generator8terminal14setup_terminal
FN:62,_RNvNtCsnNe3crDoqn_21skillcapped_generator8terminal16restore_terminal
FN:71,_RNvNtCsnNe3crDoqn_21skillcapped_generator8terminal20update_copy_feedback
FN:17,_RINvNtCscC6JkBlrp9X_21skillcapped_generator8terminal7run_appINtNtNtCsfW8eXcp3cy3_7ratatui7backend9crossterm16CrosstermBackendNtNtNtCsjiYb6geVrUt_3std2io5stdio6StdoutEEB4_
FN:26,_RNCINvNtCscC6JkBlrp9X_21skillcapped_generator8terminal7run_appINtNtNtCsfW8eXcp3cy3_7ratatui7backend9crossterm16CrosstermBackendNtNtNtCsjiYb6geVrUt_3std2io5stdio6StdoutEE0B6_
FN:53,_RNvNtCscC6JkBlrp9X_21skillcapped_generator8terminal14setup_terminal
FN:62,_RNvNtCscC6JkBlrp9X_21skillcapped_generator8terminal16restore_terminal
FN:71,_RNvNtCscC6JkBlrp9X_21skillcapped_generator8terminal20update_copy_feedback
FN:17,_RINvNtCsaEqTgPazcIc_21skillcapped_generator8terminal7run_appINtNtNtCsfW8eXcp3cy3_7ratatui7backend9crossterm16CrosstermBackendNtNtNtCsjiYb6geVrUt_3std2io5stdio6StdoutEECs2cfKgsoapJp_14terminal_tests
FN:17,_RINvNtCsaEqTgPazcIc_21skillcapped_generator8terminal7run_appNtNtNtCsfW8eXcp3cy3_7ratatui7backend4test11TestBackendECs2cfKgsoapJp_14terminal_tests
FN:26,_RNCINvNtCsaEqTgPazcIc_21skillcapped_generator8terminal7run_appINtNtNtCsfW8eXcp3cy3_7ratatui7backend9crossterm16CrosstermBackendNtNtNtCsjiYb6geVrUt_3std2io5stdio6StdoutEE0Cs2cfKgsoapJp_14terminal_tests
FN:26,_RNCINvNtCsaEqTgPazcIc_21skillcapped_generator8terminal7run_appNtNtNtCsfW8eXcp3cy3_7ratatui7backend4test11TestBackendE0Cs2cfKgsoapJp_14terminal_tests
FN:53,_RNvNtCsaEqTgPazcIc_21skillcapped_generator8terminal14setup_terminal
FN:62,_RNvNtCsaEqTgPazcIc_21skillcapped_generator8terminal16restore_terminal
FN:71,_RNvNtCsaEqTgPazcIc_21skillcapped_generator8terminal20update_copy_feedback
FNDA:0,_RINvNtCsgoF65WXF5Sm_21skillcapped_generator8terminal7run_apppEB4_
FNDA:0,_RNCINvNtCsgoF65WXF5Sm_21skillcapped_generator8terminal7run_apppE0B6_
FNDA:0,_RNvNtCsgoF65WXF5Sm_21skillcapped_generator8terminal14setup_terminal
FNDA:0,_RNvNtCsgoF65WXF5Sm_21skillcapped_generator8terminal16restore_terminal
FNDA:0,_RNvNtCsgoF65WXF5Sm_21skillcapped_generator8terminal20update_copy_feedback
FNDA:0,_RINvNtCsnNe3crDoqn_21skillcapped_generator8terminal7run_apppEB4_
FNDA:0,_RNCINvNtCsnNe3crDoqn_21skillcapped_generator8terminal7run_apppE0B6_
FNDA:0,_RNvNtCsnNe3crDoqn_21skillcapped_generator8terminal14setup_terminal
FNDA:0,_RNvNtCsnNe3crDoqn_21skillcapped_generator8terminal16restore_terminal
FNDA:0,_RNvNtCsnNe3crDoqn_21skillcapped_generator8terminal20update_copy_feedback
FNDA:0,_RINvNtCscC6JkBlrp9X_21skillcapped_generator8terminal7run_appINtNtNtCsfW8eXcp3cy3_7ratatui7backend9crossterm16CrosstermBackendNtNtNtCsjiYb6geVrUt_3std2io5stdio6StdoutEEB4_
FNDA:0,_RNCINvNtCscC6JkBlrp9X_21skillcapped_generator8terminal7run_appINtNtNtCsfW8eXcp3cy3_7ratatui7backend9crossterm16CrosstermBackendNtNtNtCsjiYb6geVrUt_3std2io5stdio6StdoutEE0B6_
FNDA:0,_RNvNtCscC6JkBlrp9X_21skillcapped_generator8terminal14setup_terminal
FNDA:0,_RNvNtCscC6JkBlrp9X_21skillcapped_generator8terminal16restore_terminal
FNDA:0,_RNvNtCscC6JkBlrp9X_21skillcapped_generator8terminal20update_copy_feedback
FNDA:0,_RINvNtCsaEqTgPazcIc_21skillcapped_generator8terminal7run_appINtNtNtCsfW8eXcp3cy3_7ratatui7backend9crossterm16CrosstermBackendNtNtNtCsjiYb6geVrUt_3std2io5stdio6StdoutEECs2cfKgsoapJp_14terminal_tests
FNDA:0,_RINvNtCsaEqTgPazcIc_21skillcapped_generator8terminal7run_appNtNtNtCsfW8eXcp3cy3_7ratatui7backend4test11TestBackendECs2cfKgsoapJp_14terminal_tests
FNDA:0,_RNCINvNtCsaEqTgPazcIc_21skillcapped_generator8terminal7run_appINtNtNtCsfW8eXcp3cy3_7ratatui7backend9crossterm16CrosstermBackendNtNtNtCsjiYb6geVrUt_3std2io5stdio6StdoutEE0Cs2cfKgsoapJp_14terminal_tests
FNDA:0,_RNCINvNtCsaEqTgPazcIc_21skillcapped_generator8terminal7run_appNtNtNtCsfW8eXcp3cy3_7ratatui7backend4test11TestBackendE0Cs2cfKgsoapJp_14terminal_tests
FNDA:2,_RNvNtCsaEqTgPazcIc_21skillcapped_generator8terminal14setup_terminal
FNDA:1,_RNvNtCsaEqTgPazcIc_21skillcapped_generator8terminal16restore_terminal
FNDA:34,_RNvNtCsaEqTgPazcIc_21skillcapped_generator8terminal20update_copy_feedback
FNF:5
FNH:3
DA:17,0
DA:18,0
DA:19,0
DA:23,0
DA:26,0
DA:29,0
DA:30,0
DA:31,0
DA:33,0
DA:34,0
DA:35,0
DA:37,0
DA:38,0
DA:39,0
DA:41,0
DA:42,0
DA:43,0
DA:44,0
DA:46,0
DA:49,0
DA:51,0
DA:53,2
DA:54,2
DA:55,2
DA:56,2
DA:57,2
DA:58,2
DA:59,2
DA:60,2
DA:62,1
DA:63,1
DA:64,1
DA:65,1
DA:66,1
DA:67,1
DA:68,1
DA:69,1
DA:71,34
DA:72,34
DA:73,28
DA:74,15
DA:75,15
DA:76,19
DA:77,34
BRF:0
BRH:0
LF:45
LH:23
end_of_record
SF:F:\Projects\Rust\skillcapped-generator\src\ui.rs
FN:244,_RNCNvNtCsaEqTgPazcIc_21skillcapped_generator2ui13get_code_info0B5_
FN:240,_RNvNtCsaEqTgPazcIc_21skillcapped_generator2ui13get_code_info
FN:92,_RNvNtCsaEqTgPazcIc_21skillcapped_generator2ui17draw_code_section
FN:115,_RNvNtCsaEqTgPazcIc_21skillcapped_generator2ui17draw_help_section
FN:206,_RNvNtCsaEqTgPazcIc_21skillcapped_generator2ui17get_input_styling
FN:33,_RNvNtCsaEqTgPazcIc_21skillcapped_generator2ui18draw_input_section
FN:216,_RNvNtCsaEqTgPazcIc_21skillcapped_generator2ui19create_version_span
FN:175,_RNvNtCsaEqTgPazcIc_21skillcapped_generator2ui19draw_footer_section
FN:68,_RNvNtCsaEqTgPazcIc_21skillcapped_generator2ui20draw_version_section
FN:11,_RNvNtCsaEqTgPazcIc_21skillcapped_generator2ui7draw_ui
FN:244,_RNCNvNtCsgoF65WXF5Sm_21skillcapped_generator2ui13get_code_info0B5_
FN:240,_RNvNtCsgoF65WXF5Sm_21skillcapped_generator2ui13get_code_info
FN:92,_RNvNtCsgoF65WXF5Sm_21skillcapped_generator2ui17draw_code_section
FN:115,_RNvNtCsgoF65WXF5Sm_21skillcapped_generator2ui17draw_help_section
FN:206,_RNvNtCsgoF65WXF5Sm_21skillcapped_generator2ui17get_input_styling
FN:33,_RNvNtCsgoF65WXF5Sm_21skillcapped_generator2ui18draw_input_section
FN:216,_RNvNtCsgoF65WXF5Sm_21skillcapped_generator2ui19create_version_span
FN:175,_RNvNtCsgoF65WXF5Sm_21skillcapped_generator2ui19draw_footer_section
FN:68,_RNvNtCsgoF65WXF5Sm_21skillcapped_generator2ui20draw_version_section
FN:11,_RNvNtCsgoF65WXF5Sm_21skillcapped_generator2ui7draw_ui
FN:244,_RNCNvNtCsnNe3crDoqn_21skillcapped_generator2ui13get_code_info0B5_
FN:240,_RNvNtCsnNe3crDoqn_21skillcapped_generator2ui13get_code_info
FN:92,_RNvNtCsnNe3crDoqn_21skillcapped_generator2ui17draw_code_section
FN:115,_RNvNtCsnNe3crDoqn_21skillcapped_generator2ui17draw_help_section
FN:206,_RNvNtCsnNe3crDoqn_21skillcapped_generator2ui17get_input_styling
FN:33,_RNvNtCsnNe3crDoqn_21skillcapped_generator2ui18draw_input_section
FN:216,_RNvNtCsnNe3crDoqn_21skillcapped_generator2ui19create_version_span
FN:175,_RNvNtCsnNe3crDoqn_21skillcapped_generator2ui19draw_footer_section
FN:68,_RNvNtCsnNe3crDoqn_21skillcapped_generator2ui20draw_version_section
FN:11,_RNvNtCsnNe3crDoqn_21skillcapped_generator2ui7draw_ui
FN:244,_RNCNvNtCscC6JkBlrp9X_21skillcapped_generator2ui13get_code_info0B5_
FN:240,_RNvNtCscC6JkBlrp9X_21skillcapped_generator2ui13get_code_info
FN:92,_RNvNtCscC6JkBlrp9X_21skillcapped_generator2ui17draw_code_section
FN:115,_RNvNtCscC6JkBlrp9X_21skillcapped_generator2ui17draw_help_section
FN:206,_RNvNtCscC6JkBlrp9X_21skillcapped_generator2ui17get_input_styling
FN:33,_RNvNtCscC6JkBlrp9X_21skillcapped_generator2ui18draw_input_section
FN:216,_RNvNtCscC6JkBlrp9X_21skillcapped_generator2ui19create_version_span
FN:175,_RNvNtCscC6JkBlrp9X_21skillcapped_generator2ui19draw_footer_section
FN:68,_RNvNtCscC6JkBlrp9X_21skillcapped_generator2ui20draw_version_section
FN:11,_RNvNtCscC6JkBlrp9X_21skillcapped_generator2ui7draw_ui
FNDA:0,_RNCNvNtCsaEqTgPazcIc_21skillcapped_generator2ui13get_code_info0B5_
FNDA:40,_RNvNtCsaEqTgPazcIc_21skillcapped_generator2ui13get_code_info
FNDA:40,_RNvNtCsaEqTgPazcIc_21skillcapped_generator2ui17draw_code_section
FNDA:40,_RNvNtCsaEqTgPazcIc_21skillcapped_generator2ui17draw_help_section
FNDA:40,_RNvNtCsaEqTgPazcIc_21skillcapped_generator2ui17get_input_styling
FNDA:40,_RNvNtCsaEqTgPazcIc_21skillcapped_generator2ui18draw_input_section
FNDA:80,_RNvNtCsaEqTgPazcIc_21skillcapped_generator2ui19create_version_span
FNDA:40,_RNvNtCsaEqTgPazcIc_21skillcapped_generator2ui19draw_footer_section
FNDA:40,_RNvNtCsaEqTgPazcIc_21skillcapped_generator2ui20draw_version_section
FNDA:40,_RNvNtCsaEqTgPazcIc_21skillcapped_generator2ui7draw_ui
FNDA:0,_RNCNvNtCsgoF65WXF5Sm_21skillcapped_generator2ui13get_code_info0B5_
FNDA:0,_RNvNtCsgoF65WXF5Sm_21skillcapped_generator2ui13get_code_info
FNDA:0,_RNvNtCsgoF65WXF5Sm_21skillcapped_generator2ui17draw_code_section
FNDA:0,_RNvNtCsgoF65WXF5Sm_21skillcapped_generator2ui17draw_help_section
FNDA:0,_RNvNtCsgoF65WXF5Sm_21skillcapped_generator2ui17get_input_styling
FNDA:0,_RNvNtCsgoF65WXF5Sm_21skillcapped_generator2ui18draw_input_section
FNDA:0,_RNvNtCsgoF65WXF5Sm_21skillcapped_generator2ui19create_version_span
FNDA:0,_RNvNtCsgoF65WXF5Sm_21skillcapped_generator2ui19draw_footer_section
FNDA:0,_RNvNtCsgoF65WXF5Sm_21skillcapped_generator2ui20draw_version_section
FNDA:0,_RNvNtCsgoF65WXF5Sm_21skillcapped_generator2ui7draw_ui
FNDA:0,_RNCNvNtCsnNe3crDoqn_21skillcapped_generator2ui13get_code_info0B5_
FNDA:0,_RNvNtCsnNe3crDoqn_21skillcapped_generator2ui13get_code_info
FNDA:0,_RNvNtCsnNe3crDoqn_21skillcapped_generator2ui17draw_code_section
FNDA:0,_RNvNtCsnNe3crDoqn_21skillcapped_generator2ui17draw_help_section
FNDA:0,_RNvNtCsnNe3crDoqn_21skillcapped_generator2ui17get_input_styling
FNDA:0,_RNvNtCsnNe3crDoqn_21skillcapped_generator2ui18draw_input_section
FNDA:0,_RNvNtCsnNe3crDoqn_21skillcapped_generator2ui19create_version_span
FNDA:0,_RNvNtCsnNe3crDoqn_21skillcapped_generator2ui19draw_footer_section
FNDA:0,_RNvNtCsnNe3crDoqn_21skillcapped_generator2ui20draw_version_section
FNDA:0,_RNvNtCsnNe3crDoqn_21skillcapped_generator2ui7draw_ui
FNDA:0,_RNCNvNtCscC6JkBlrp9X_21skillcapped_generator2ui13get_code_info0B5_
FNDA:0,_RNvNtCscC6JkBlrp9X_21skillcapped_generator2ui13get_code_info
FNDA:0,_RNvNtCscC6JkBlrp9X_21skillcapped_generator2ui17draw_code_section
FNDA:0,_RNvNtCscC6JkBlrp9X_21skillcapped_generator2ui17draw_help_section
FNDA:0,_RNvNtCscC6JkBlrp9X_21skillcapped_generator2ui17get_input_styling
FNDA:0,_RNvNtCscC6JkBlrp9X_21skillcapped_generator2ui18draw_input_section
FNDA:0,_RNvNtCscC6JkBlrp9X_21skillcapped_generator2ui19create_version_span
FNDA:0,_RNvNtCscC6JkBlrp9X_21skillcapped_generator2ui19draw_footer_section
FNDA:0,_RNvNtCscC6JkBlrp9X_21skillcapped_generator2ui20draw_version_section
FNDA:0,_RNvNtCscC6JkBlrp9X_21skillcapped_generator2ui7draw_ui
FNF:10
FNH:9
DA:11,40
DA:12,40
DA:14,40
DA:15,40
DA:16,40
DA:17,40
DA:18,40
DA:19,40
DA:20,40
DA:21,40
DA:22,40
DA:23,40
DA:24,40
DA:26,40
DA:27,40
DA:28,40
DA:29,40
DA:30,40
DA:31,40
DA:33,40
DA:34,40
DA:36,40
DA:37,19
DA:39,21
DA:42,40
DA:43,40
DA:44,40
DA:45,40
DA:47,40
DA:48,40
DA:49,40
DA:51,40
DA:53,40
DA:54,40
DA:55,40
DA:56,40
DA:57,40
DA:58,40
DA:59,40
DA:60,40
DA:62,40
DA:64,40
DA:66,40
DA:68,40
DA:69,40
DA:70,40
DA:71,40
DA:72,40
DA:73,40
DA:76,40
DA:77,40
DA:78,40
DA:79,40
DA:80,40
DA:81,40
DA:82,40
DA:83,40
DA:84,40
DA:86,40
DA:88,40
DA:90,40
DA:92,40
DA:93,40
DA:95,40
DA:96,40
DA:97,40
DA:98,40
DA:100,40
DA:101,40
DA:102,40
DA:103,40
DA:104,40
DA:105,40
DA:106,40
DA:107,40
DA:109,40
DA:111,40
DA:113,40
DA:115,40
DA:116,40
DA:117,40
DA:118,40
DA:120,40
DA:121,40
DA:122,40
DA:124,40
DA:125,40
DA:126,40
DA:128,40
DA:129,40
DA:130,40
DA:132,40
DA:133,40
DA:134,40
DA:136,40
DA:137,40
DA:138,40
DA:140,40
DA:141,40
DA:142,40
DA:144,40
DA:145,40
DA:146,40
DA:148,40
DA:149,40
DA:150,40
DA:152,40
DA:153,40
DA:154,40
DA:156,40
DA:159,40
DA:160,40
DA:161,40
DA:162,40
DA:163,40
DA:164,40
DA:165,40
DA:166,40
DA:167,40
DA:169,40
DA:171,40
DA:173,40
DA:175,40
DA:176,40
DA:177,40
DA:178,40
DA:179,40
DA:181,40
DA:182,40
DA:183,40
DA:185,40
DA:186,40
DA:188,40
DA:189,40
DA:190,40
DA:191,40
DA:193,40
DA:195,40
DA:196,40
DA:197,40
DA:198,40
DA:199,40
DA:200,40
DA:202,40
DA:204,40
DA:206,40
DA:207,40
DA:208,19
DA:209,21
DA:210,15
DA:212,6
DA:214,40
DA:216,80
DA:217,80
DA:218,80
DA:219,40
DA:221,40
DA:224,80
DA:225,80
DA:226,80
DA:227,80
DA:228,40
DA:230,40
DA:232,80
DA:233,40
DA:235,40
DA:238,80
DA:240,40
DA:241,40
DA:242,15
DA:243,15
DA:244,15
DA:246,15
DA:247,3
DA:248,3
DA:250,0
DA:251,12
DA:254,15
DA:256,25
DA:257,25
DA:258,25
DA:259,25
DA:260,25
DA:262,40
BRF:0
BRH:0
LF:185
LH:183
end_of_record